; Function Attrs: nounwind uwtable
define noalias nonnull ptr @l_Lean_Elab_Term_expandWhereDeclsOpt___boxed(ptr noundef %0, ptr noundef %1, ptr noundef %2, ptr noundef %3) local_unnamed_addr #1 {
  %5 = tail call zeroext i8 @l_Lean_Syntax_isNone(ptr noundef %0) #6
  %6 = icmp eq i8 %5, 0
  br i1 %6, label %7, label %10

7:                                                ; preds = %4
  %8 = tail call ptr @l_Lean_Syntax_getArg(ptr noundef %0, ptr noundef nonnull inttoptr (i64 1 to ptr)) #6
  %9 = tail call ptr @l_Lean_Elab_Term_expandWhereDecls(ptr noundef %8, ptr noundef %1, ptr noundef readonly %2, ptr noundef %3)
  br label %l_Lean_Elab_Term_expandWhereDeclsOpt.exit

10:                                               ; preds = %4
  tail call void @lean_inc_heartbeat() #6
  %11 = tail call noalias ptr @mi_malloc_small(i64 noundef 24) #6
  %12 = icmp eq ptr %11, null
  br i1 %12, label %13, label %lean_alloc_ctor.exit.i

13:                                               ; preds = %10
  tail call void @lean_internal_panic_out_of_memory() #7
  unreachable

lean_alloc_ctor.exit.i:                           ; preds = %10
  %14 = getelementptr inbounds nuw i8, ptr %11, i64 4
  store i32 1, ptr %11, align 4, !tbaa !8
  store i32 131096, ptr %14, align 4
  %15 = getelementptr inbounds nuw i8, ptr %11, i64 8
  store ptr %1, ptr %15, align 8, !tbaa !4
  %16 = getelementptr inbounds nuw i8, ptr %11, i64 16
  store ptr %3, ptr %16, align 8, !tbaa !4
  br label %l_Lean_Elab_Term_expandWhereDeclsOpt.exit

l_Lean_Elab_Term_expandWhereDeclsOpt.exit:        ; preds = %7, %lean_alloc_ctor.exit.i
  %.0.i = phi ptr [ %9, %7 ], [ %11, %lean_alloc_ctor.exit.i ]
  %17 = ptrtoint ptr %2 to i64
  %18 = and i64 %17, 1
  %.not = icmp eq i64 %18, 0
  br i1 %.not, label %19, label %lean_dec.exit7

19:                                               ; preds = %l_Lean_Elab_Term_expandWhereDeclsOpt.exit
  %20 = load i32, ptr %2, align 4, !tbaa !8
  %21 = icmp sgt i32 %20, 1
  br i1 %21, label %22, label %24, !prof !11

22:                                               ; preds = %19
  %23 = add nsw i32 %20, -1
  store i32 %23, ptr %2, align 4, !tbaa !8
  br label %lean_dec.exit7

24:                                               ; preds = %19
  %.not.i = icmp eq i32 %20, 0
  br i1 %.not.i, label %lean_dec.exit7, label %25

25:                                               ; preds = %24
  tail call void @lean_dec_ref_cold(ptr noundef nonnull %2) #6
  br label %lean_dec.exit7

lean_dec.exit7:                                   ; preds = %25, %24, %22, %l_Lean_Elab_Term_expandWhereDeclsOpt.exit
  %26 = ptrtoint ptr %0 to i64
  %27 = and i64 %26, 1
  %.not10 = icmp eq i64 %27, 0
  br i1 %.not10, label %28, label %lean_dec.exit

28:                                               ; preds = %lean_dec.exit7
  %29 = load i32, ptr %0, align 4, !tbaa !8
  %30 = icmp sgt i32 %29, 1
  br i1 %30, label %31, label %33, !prof !11

31:                                               ; preds = %28
  %32 = add nsw i32 %29, -1
  store i32 %32, ptr %0, align 4, !tbaa !8
  br label %lean_dec.exit

33:                                               ; preds = %28
  %.not.i8 = icmp eq i32 %29, 0
  br i1 %.not.i8, label %lean_dec.exit, label %34

34:                                               ; preds = %33
  tail call void @lean_dec_ref_cold(ptr noundef nonnull %0) #6
  br label %lean_dec.exit

lean_dec.exit:                                    ; preds = %34, %33, %31, %lean_dec.exit7
  ret ptr %.0.i
}